(dp1
S'Name'
p2
(dp3
S'type'
p4
S'string'
p5
sS'sortable'
p6
I2
sS'sql'
p7
S'CHAR(512)'
p8
ssS'created_by'
p9
(dp10
g4
S'reference auth_user'
p11
sg6
I5
sg7
S'INTEGER REFERENCES auth_user(id) ON DELETE CASCADE'
p12
ssS'created_on'
p13
(dp14
g4
S'datetime'
p15
sg6
I6
sg7
S'TIMESTAMP'
p16
ssS'Location'
p17
(dp18
g4
g5
sg6
I4
sg7
S'CHAR(512)'
p19
ssS'id'
p20
(dp21
g4
g20
sg6
I1
sg7
S'INTEGER PRIMARY KEY AUTOINCREMENT'
p22
ssS'Quantity'
p23
(dp24
g4
g5
sg6
I3
sg7
S'CHAR(512)'
p25
ss.