(dp1
S'created_on'
p2
(dp3
S'type'
p4
S'datetime'
p5
sS'sortable'
p6
I4
sS'sql'
p7
S'TIMESTAMP'
p8
ssS'id'
p9
(dp10
g4
S'id'
p11
sg6
I1
sg7
S'INTEGER PRIMARY KEY AUTOINCREMENT'
p12
ssS'created_by'
p13
(dp14
g4
S'reference auth_user'
p15
sg6
I3
sg7
S'INTEGER REFERENCES auth_user(id) ON DELETE CASCADE'
p16
ssS'name'
p17
(dp18
g4
S'string'
p19
sg6
I2
sg7
S'CHAR(512)'
p20
ss.