(dp1
S'project'
p2
(dp3
S'type'
p4
S'string'
p5
sS'sortable'
p6
I4
sS'sql'
p7
S'CHAR(512)'
p8
ssS'created_on'
p9
(dp10
g4
S'datetime'
p11
sg6
I6
sg7
S'TIMESTAMP'
p12
ssS'version'
p13
(dp14
g4
g5
sg6
I3
sg7
S'CHAR(32768)'
p15
ssS'serial'
p16
(dp17
g4
g5
sg6
I2
sg7
S'CHAR(512)'
p18
ssS'id'
p19
(dp20
g4
S'id'
p21
sg6
I1
sg7
S'INTEGER PRIMARY KEY AUTOINCREMENT'
p22
ssS'created_by'
p23
(dp24
g4
S'reference auth_user'
p25
sg6
I5
sg7
S'INTEGER REFERENCES auth_user(id) ON DELETE CASCADE'
p26
ss.